target datalayout = "e-m:e-p270:32:32-p271:32:32-p272:64:64-i64:64-i128:128-f80:128-n8:16:32:64-S128"
target triple = "x86_64-pc-linux-gnu"

%struct.dh_named_group_st = type { ptr, i32, i32, i32, ptr, ptr, ptr }
%struct.ffc_params_st = type { ptr, ptr, ptr, ptr, ptr, i64, i32, i32, i32, i32, i32, ptr, ptr, i32 }

; Function Attrs: nounwind uwtable
define i32 @ossl_ffc_named_group_set(ptr noundef %0, ptr noundef %1) #0 {
  %3 = alloca i32, align 4
  %4 = alloca ptr, align 8
  %5 = alloca ptr, align 8
  store ptr %0, ptr %4, align 8, !tbaa !27
  store ptr %1, ptr %5, align 8, !tbaa !24
  %6 = load ptr, ptr %4, align 8, !tbaa !27
  %7 = icmp eq ptr %6, null
  br i1 %7, label %11, label %8

8:                                                ; preds = %2
  %9 = load ptr, ptr %5, align 8, !tbaa !24
  %10 = icmp eq ptr %9, null
  br i1 %10, label %11, label %12

11:                                               ; preds = %8, %2
  store i32 0, ptr %3, align 4
  br label %30

12:                                               ; preds = %8
  %13 = load ptr, ptr %4, align 8, !tbaa !27
  %14 = load ptr, ptr %5, align 8, !tbaa !24
  %15 = getelementptr inbounds nuw %struct.dh_named_group_st, ptr %14, i32 0, i32 4
  %16 = load ptr, ptr %15, align 8, !tbaa !20
  %17 = load ptr, ptr %5, align 8, !tbaa !24
  %18 = getelementptr inbounds nuw %struct.dh_named_group_st, ptr %17, i32 0, i32 5
  %19 = load ptr, ptr %18, align 8, !tbaa !22
  %20 = load ptr, ptr %5, align 8, !tbaa !24
  %21 = getelementptr inbounds nuw %struct.dh_named_group_st, ptr %20, i32 0, i32 6
  %22 = load ptr, ptr %21, align 8, !tbaa !21
  call void @ossl_ffc_params_set0_pqg(ptr noundef %13, ptr noundef %16, ptr noundef %19, ptr noundef %22)
  %23 = load ptr, ptr %5, align 8, !tbaa !24
  %24 = getelementptr inbounds nuw %struct.dh_named_group_st, ptr %23, i32 0, i32 3
  %25 = load i32, ptr %24, align 8, !tbaa !26
  %26 = load ptr, ptr %4, align 8, !tbaa !27
  %27 = getelementptr inbounds nuw %struct.ffc_params_st, ptr %26, i32 0, i32 13
  store i32 %25, ptr %27, align 8, !tbaa !29
  %28 = load ptr, ptr %4, align 8, !tbaa !27
  %29 = getelementptr inbounds nuw %struct.ffc_params_st, ptr %28, i32 0, i32 7
  store i32 0, ptr %29, align 4, !tbaa !31
  store i32 1, ptr %3, align 4
  br label %30

30:                                               ; preds = %12, %11
  %31 = load i32, ptr %3, align 4
  ret i32 %31
}